Certificate:
    Data:
        Version: 3 (0x2)
        Serial Number: 1 (0x1)
    Signature Algorithm: sha256WithRSAEncryption
        Issuer: CN=devcert
        Validity
            Not Before: Apr 25 06:28:54 2020 GMT
            Not After : Jul 29 06:28:54 2022 GMT
        Subject: CN=localhost
        Subject Public Key Info:
            Public Key Algorithm: rsaEncryption
                Public-Key: (2048 bit)
                Modulus:
                    00:d5:c1:24:1f:9b:de:c8:5b:26:c0:2f:e0:30:97:
                    c6:43:de:63:df:81:04:97:4f:2b:f2:47:d1:10:62:
                    9f:98:7a:e3:f0:5d:97:b6:e2:c7:f7:3b:72:a2:0b:
                    14:97:fe:78:79:e5:8b:dc:e7:e4:9d:af:5b:27:cd:
                    da:5c:a4:f4:7a:9d:f7:cf:88:b3:2f:58:33:e7:02:
                    ba:ac:db:03:62:79:52:b5:cb:d2:01:ee:bf:04:27:
                    2a:45:fd:0a:15:b6:33:07:7b:9b:1e:65:9b:8a:da:
                    85:54:47:de:ee:f3:71:73:dc:7b:33:49:ca:81:bb:
                    c1:bc:ba:cb:0a:bd:35:5a:c8:af:9a:1b:77:36:af:
                    a1:ef:63:c5:f7:7d:37:4e:22:bb:8e:c6:e8:39:7b:
                    68:e3:71:ca:73:15:f1:80:0b:e3:a0:04:94:09:25:
                    86:98:c5:5d:63:89:a2:f7:c3:a2:20:69:7a:29:54:
                    23:2c:d0:d1:57:a5:c6:1b:f4:ec:75:32:7e:e9:cf:
                    49:b3:9c:71:6a:95:01:f6:18:87:a5:a0:6a:f7:bb:
                    f7:9b:e8:96:77:cb:e7:ea:72:04:06:f3:0e:bd:1c:
                    fd:4a:d9:bd:84:06:d1:73:3f:8d:66:e6:cb:68:52:
                    79:d1:db:a3:eb:cb:6a:6d:23:7a:37:db:8c:bc:60:
                    db:cb
                Exponent: 65537 (0x10001)
        X509v3 extensions:
            X509v3 Basic Constraints: critical
                CA:FALSE
            X509v3 Subject Key Identifier: 
                C3:3E:D8:83:27:72:35:65:F2:C3:54:F8:DD:50:1B:82:01:0D:FF:24
            X509v3 Authority Key Identifier: 
                keyid:DE:16:38:01:7B:52:D7:BF:26:28:F5:32:9A:32:A6:03:4F:DA:3E:5E
                DirName:/CN=devcert
                serial:F6:D6:A1:FA:77:94:61:A9

            X509v3 Key Usage: critical
                Digital Signature, Key Encipherment
            X509v3 Extended Key Usage: 
                TLS Web Server Authentication
            X509v3 Subject Alternative Name: 
                DNS:localhost, DNS:*.localhost
    Signature Algorithm: sha256WithRSAEncryption
         27:34:49:2d:c3:12:20:79:04:94:73:95:a4:d7:97:d1:a2:f9:
         c3:f3:91:6c:50:86:69:6c:93:d0:2f:cf:90:df:19:34:7f:3c:
         e7:60:b8:1c:51:15:46:b8:92:1e:43:54:25:e7:e4:6d:6c:6a:
         39:79:7a:ca:87:30:8a:cf:a6:e0:91:cf:3c:56:a4:84:46:9c:
         92:0a:30:e3:33:d0:70:3a:13:3b:af:dd:aa:f6:10:06:01:53:
         68:20:d7:c9:10:55:12:b6:bd:05:5b:57:34:7a:8c:d6:03:1a:
         2c:35:c8:fe:91:b6:94:57:64:a8:4d:05:89:82:c2:71:28:54:
         49:a6:09:a7:47:b8:04:33:97:97:ae:7d:45:d7:d5:1a:9a:ea:
         98:ca:e3:1e:c0:48:bd:21:f9:13:60:c4:80:1c:af:e8:da:6a:
         16:ea:55:77:8c:19:a9:23:cf:4d:29:61:7d:30:84:27:a9:b5:
         ec:99:98:e2:f8:c8:bf:09:10:d7:c3:cf:1b:cb:c6:0f:15:f2:
         80:c3:17:78:3e:f0:a6:71:e6:54:51:72:58:1a:c4:66:b2:1c:
         14:8f:b1:10:3a:81:11:12:28:cc:c7:4e:d0:34:fc:83:3c:1f:
         12:a7:ac:0f:b1:ee:64:1b:50:0c:31:0a:dd:cc:02:e4:a1:c9:
         bb:7f:80:49
-----BEGIN CERTIFICATE-----
MIIDXjCCAkagAwIBAgIBATANBgkqhkiG9w0BAQsFADASMRAwDgYDVQQDDAdkZXZj
ZXJ0MB4XDTIwMDQyNTA2Mjg1NFoXDTIyMDcyOTA2Mjg1NFowFDESMBAGA1UEAwwJ
bG9jYWxob3N0MIIBIjANBgkqhkiG9w0BAQEFAAOCAQ8AMIIBCgKCAQEA1cEkH5ve
yFsmwC/gMJfGQ95j34EEl08r8kfREGKfmHrj8F2XtuLH9ztyogsUl/54eeWL3Ofk
na9bJ83aXKT0ep33z4izL1gz5wK6rNsDYnlStcvSAe6/BCcqRf0KFbYzB3ubHmWb
itqFVEfe7vNxc9x7M0nKgbvBvLrLCr01Wsivmht3Nq+h72PF9303TiK7jsboOXto
43HKcxXxgAvjoASUCSWGmMVdY4mi98OiIGl6KVQjLNDRV6XGG/TsdTJ+6c9Js5xx
apUB9hiHpaBq97v3m+iWd8vn6nIEBvMOvRz9Stm9hAbRcz+NZubLaFJ50duj68tq
bSN6N9uMvGDbywIDAQABo4G8MIG5MAwGA1UdEwEB/wQCMAAwHQYDVR0OBBYEFMM+
2IMncjVl8sNU+N1QG4IBDf8kMEIGA1UdIwQ7MDmAFN4WOAF7Ute/Jij1MpoypgNP
2j5eoRakFDASMRAwDgYDVQQDDAdkZXZjZXJ0ggkA9tah+neUYakwDgYDVR0PAQH/
BAQDAgWgMBMGA1UdJQQMMAoGCCsGAQUFBwMBMCEGA1UdEQQaMBiCCWxvY2FsaG9z
dIILKi5sb2NhbGhvc3QwDQYJKoZIhvcNAQELBQADggEBACc0SS3DEiB5BJRzlaTX
l9Gi+cPzkWxQhmlsk9Avz5DfGTR/POdguBxRFUa4kh5DVCXn5G1sajl5esqHMIrP
puCRzzxWpIRGnJIKMOMz0HA6Ezuv3ar2EAYBU2gg18kQVRK2vQVbVzR6jNYDGiw1
yP6RtpRXZKhNBYmCwnEoVEmmCadHuAQzl5eufUXX1Rqa6pjK4x7ASL0h+RNgxIAc
r+jaahbqVXeMGakjz00pYX0whCepteyZmOL4yL8JENfDzxvLxg8V8oDDF3g+8KZx
5lRRclgaxGayHBSPsRA6gRESKMzHTtA0/IM8HxKnrA+x7mQbUAwxCt3MAuShybt/
gEk=
-----END CERTIFICATE-----
